target datalayout = "e-m:e-p270:32:32-p271:32:32-p272:64:64-i64:64-i128:128-f80:128-n8:16:32:64-S128"
target triple = "x86_64-pc-linux-gnu"

%"struct.ofbx::Vec3" = type { double, double, double }

@.str.8 = private unnamed_addr constant [14 x i8] c"ScalingOffset\00", align 1

; Function Attrs: mustprogress uwtable
define void @_ZNK4ofbx6Object16getScalingOffsetEv(ptr dead_on_unwind noalias writable sret(%"struct.ofbx::Vec3") align 8 %0, ptr noundef nonnull align 8 dereferenceable(176) %1) #3 align 2 {
  %3 = alloca ptr, align 8
  %4 = alloca %"struct.ofbx::Vec3", align 8
  store ptr %1, ptr %3, align 8
  %5 = load ptr, ptr %3, align 8
  call void @llvm.memset.p0.i64(ptr align 8 %4, i8 0, i64 24, i1 false)
  call void @_ZN4ofbxL19resolveVec3PropertyERKNS_6ObjectEPKcRKNS_4Vec3E(ptr dead_on_unwind writable sret(%"struct.ofbx::Vec3") align 8 %0, ptr noundef nonnull align 8 dereferenceable(176) %5, ptr noundef @.str.8, ptr noundef nonnull align 8 dereferenceable(24) %4)
  ret void
}